(iee_model
ModelState
p0
(dp1
S'label_column'
p2
I0
sS'rows_2_studies'
p3
(dp4
I0
(idataset.study
Study
p5
(dp6
S'study_id'
p7
I0
sS'variables'
p8
(dp9
(idataset.variable
Variable
p10
(dp11
S'var_id'
p12
I2
sS'sub_type'
p13
NsS'var_type'
p14
I0
sS'label'
p15
S'stress'
p16
sbS'L'
p17
s(idataset.variable
Variable
p18
(dp19
g12
I4
sg13
I1
sg14
I1
sg15
S'Var'
p20
sbF0.341
s(idataset.variable
Variable
p21
(dp22
g12
I1
sg13
Nsg14
I0
sg15
S'expt'
p23
sbS'e'
p24
s(idataset.variable
Variable
p25
(dp26
g12
I3
sg13
I0
sg14
I1
sg15
S'lnOR'
p27
sbF-0.341
ssg15
S'1.1'
p28
sbsI1
(idataset.study
Study
p29
(dp30
g7
I1
sg8
(dp31
g10
S'H'
p32
sg18
F0.444
sg21
S'e'
p33
sg25
F1.556
ssg15
S'1.1-2'
p34
sbsI2
(idataset.study
Study
p35
(dp36
g7
I2
sg8
(dp37
g10
S'L'
p38
sg18
F0.351
sg21
S'e'
p39
sg25
F0.175
ssg15
S'1.2'
p40
sbsI3
(idataset.study
Study
p41
(dp42
g7
I3
sg8
(dp43
g10
S'H'
p44
sg18
F0.341
sg21
S'e'
p45
sg25
F-0.341
ssg15
S'1.2-2'
p46
sbsI4
(idataset.study
Study
p47
(dp48
g7
I4
sg8
(dp49
g10
S'L'
p50
sg18
F0.684
sg21
S'e'
p51
sg25
F1.367
ssg15
S'2.1'
p52
sbsI5
(idataset.study
Study
p53
(dp54
g7
I5
sg8
(dp55
g10
S'H'
p56
sg18
F2.013
sg21
S'e'
p57
sg25
F0.0
ssg15
S'2.1-2'
p58
sbsI6
(idataset.study
Study
p59
(dp60
g7
I6
sg8
(dp61
g10
S'L'
p62
sg18
F1.015
sg21
S'e'
p63
sg25
F1.015
ssg15
S'2.2'
p64
sbsI7
(idataset.study
Study
p65
(dp66
g7
I7
sg8
(dp67
g10
S'H'
p68
sg18
F0.595
sg21
S'e'
p69
sg25
F1.487
ssg15
S'2.2-2'
p70
sbsI8
(idataset.study
Study
p71
(dp72
g7
I8
sg8
(dp73
g10
S'L'
p74
sg18
F0.432
sg21
S'e'
p75
sg25
F-0.216
ssg15
S'3.1'
p76
sbsI9
(idataset.study
Study
p77
(dp78
g7
I9
sg8
(dp79
g10
S'H'
p80
sg18
F0.328
sg21
S'e'
p81
sg25
F-0.328
ssg15
S'3.1-2'
p82
sbsI10
(idataset.study
Study
p83
(dp84
g7
I10
sg8
(dp85
g10
S'L'
p86
sg18
F2.059
sg21
S'e'
p87
sg25
F0.0
ssg15
S'4.1'
p88
sbsI11
(idataset.study
Study
p89
(dp90
g7
I11
sg8
(dp91
g10
S'H'
p92
sg18
F2.059
sg21
S'e'
p93
sg25
F0.0
ssg15
S'4.1-2'
p94
sbsI12
(idataset.study
Study
p95
(dp96
g7
I12
sg8
(dp97
g10
S'L'
p98
sg18
F2.059
sg21
S'e'
p99
sg25
F0.0
ssg15
S'4.2'
p100
sbsI13
(idataset.study
Study
p101
(dp102
g7
I13
sg8
(dp103
g10
S'H'
p104
sg18
F2.059
sg21
S'e'
p105
sg25
F0.0
ssg15
S'4.2-2'
p106
sbsI14
(idataset.study
Study
p107
(dp108
g7
I14
sg8
(dp109
g10
S'L'
p110
sg18
F1.414
sg21
S'e'
p111
sg25
F0.707
ssg15
S'4.3'
p112
sbsI15
(idataset.study
Study
p113
(dp114
g7
I15
sg8
(dp115
g10
S'H'
p116
sg18
F1.414
sg21
S'e'
p117
sg25
F0.707
ssg15
S'4.3-2'
p118
sbsI16
(idataset.study
Study
p119
(dp120
g7
I16
sg8
(dp121
g10
S'L'
p122
sg18
F0.263
sg21
S'e'
p123
sg25
F-1.575
ssg15
S'5.1'
p124
sbsI17
(idataset.study
Study
p125
(dp126
g7
I17
sg8
(dp127
g10
S'H'
p128
sg18
F2.032
sg21
S'e'
p129
sg25
F0.0
ssg15
S'5.1-2'
p130
sbsI18
(idataset.study
Study
p131
(dp132
g7
I18
sg8
(dp133
g10
S'L'
p134
sg18
F0.114
sg21
S'o'
p135
sg25
F-0.672
ssg15
S'6.1'
p136
sbsI19
(idataset.study
Study
p137
(dp138
g7
I19
sg8
(dp139
g10
S'H'
p140
sg18
F0.157
sg21
S'o'
p141
sg25
F0.498
ssg15
S'6.1-2'
p142
sbsI20
(idataset.study
Study
p143
(dp144
g7
I20
sg8
(dp145
g10
S'L'
p146
sg18
F0.675
sg21
S'o'
p147
sg25
F1.146
ssg15
S'6.2'
p148
sbsI21
(idataset.study
Study
p149
(dp150
g7
I21
sg8
(dp151
g10
S'H'
p152
sg18
F0.778
sg21
S'o'
p153
sg25
F-1.631
ssg15
S'6.2-2'
p154
sbsI22
(idataset.study
Study
p155
(dp156
g7
I22
sg8
(dp157
g10
S'L'
p158
sg18
F0.82
sg21
S'o'
p159
sg25
F-1.311
ssg15
S'6.3'
p160
sbsI23
(idataset.study
Study
p161
(dp162
g7
I23
sg8
(dp163
g10
S'H'
p164
sg18
F0.055
sg21
S'o'
p165
sg25
F0.72
ssg15
S'6.3-2'
p166
sbsI24
(idataset.study
Study
p167
(dp168
g7
I24
sg8
(dp169
g10
S'L'
p170
sg18
F0.796
sg21
S'o'
p171
sg25
F2.428
ssg15
S'6.4'
p172
sbsI25
(idataset.study
Study
p173
(dp174
g7
I25
sg8
(dp175
g10
S'H'
p176
sg18
F1.865
sg21
S'o'
p177
sg25
F-0.421
ssg15
S'6.4-2'
p178
sbsI26
(idataset.study
Study
p179
(dp180
g7
I26
sg8
(dp181
g10
S'L'
p182
sg18
F0.269
sg21
S'o'
p183
sg25
F0.999
ssg15
S'6.5'
p184
sbsI27
(idataset.study
Study
p185
(dp186
g7
I27
sg8
(dp187
g10
S'H'
p188
sg18
F1.303
sg21
S'o'
p189
sg25
F-1.198
ssg15
S'6.5-2'
p190
sbsI28
(idataset.study
Study
p191
(dp192
g7
I28
sg8
(dp193
g10
S'L'
p194
sg18
F0.135
sg21
S'o'
p195
sg25
F1.519
ssg15
S'6.6'
p196
sbsI29
(idataset.study
Study
p197
(dp198
g7
I29
sg8
(dp199
g10
S'H'
p200
sg18
F0.031
sg21
S'o'
p201
sg25
F-0.234
ssg15
S'6.6-2'
p202
sbsI30
(idataset.study
Study
p203
(dp204
g7
I30
sg8
(dp205
g10
S'L'
p206
sg18
F0.366
sg21
S'o'
p207
sg25
F1.572
ssg15
S'7.1'
p208
sbsI31
(idataset.study
Study
p209
(dp210
g7
I31
sg8
(dp211
g10
S'H'
p212
sg18
F1.375
sg21
S'o'
p213
sg25
F-1.562
ssg15
S'7.1-2'
p214
sbsI32
(idataset.study
Study
p215
(dp216
g7
I32
sg8
(dp217
g10
S'L'
p218
sg18
F1.681
sg21
S'o'
p219
sg25
F-0.611
ssg15
S'8.1'
p220
sbsI33
(idataset.study
Study
p221
(dp222
g7
I33
sg8
(dp223
g10
S'H'
p224
sg18
F0.202
sg21
S'o'
p225
sg25
F-2.107
ssg15
S'8.1-2'
p226
sbsI34
(idataset.study
Study
p227
(dp228
g7
I34
sg8
(dp229
g10
S'L'
p230
sg18
F0.135
sg21
S'o'
p231
sg25
F1.349
ssg15
S'9.1'
p232
sbsI35
(idataset.study
Study
p233
(dp234
g7
I35
sg8
(dp235
g10
S'H'
p236
sg18
F0.373
sg21
S'o'
p237
sg25
F1.12
ssg15
S'9.1-2'
p238
sbsI36
(idataset.study
Study
p239
(dp240
g7
I36
sg8
(dp241
g10
S'L'
p242
sg18
F1.167
sg21
S'e'
p243
sg25
F-1.167
ssg15
S'10.1'
p244
sbsI37
(idataset.study
Study
p245
(dp246
g7
I37
sg8
(dp247
g10
S'H'
p248
sg18
F0.064
sg21
S'e'
p249
sg25
F-1.243
ssg15
S'10.1-2'
p250
sbsI38
(idataset.study
Study
p251
(dp252
g7
I38
sg8
(dp253
g10
S'L'
p254
sg18
F0.259
sg21
S'e'
p255
sg25
F-0.81
ssg15
S'10.2'
p256
sbsI39
(idataset.study
Study
p257
(dp258
g7
I39
sg8
(dp259
g10
S'H'
p260
sg18
F0.379
sg21
S'e'
p261
sg25
F-0.037
ssg15
S'10.2-2'
p262
sbsI40
(idataset.study
Study
p263
(dp264
g7
I40
sg8
(dp265
g10
S'L'
p266
sg18
F0.248
sg21
S'e'
p267
sg25
F-3.352
ssg15
S'11.1'
p268
sbsI41
(idataset.study
Study
p269
(dp270
g7
I41
sg8
(dp271
g10
S'H'
p272
sg18
F0.263
sg21
S'e'
p273
sg25
F-2.888
ssg15
S'11.1-2'
p274
sbsI42
(idataset.study
Study
p275
(dp276
g7
I42
sg8
(dp277
g10
S'L'
p278
sg18
F0.182
sg21
S'e'
p279
sg25
F1.179
ssg15
S'12.1'
p280
sbsI43
(idataset.study
Study
p281
(dp282
g7
I43
sg8
(dp283
g10
S'H'
p284
sg18
F0.687
sg21
S'e'
p285
sg25
F1.338
ssg15
S'12.1-2'
p286
sbsI44
(idataset.study
Study
p287
(dp288
g7
I44
sg8
(dp289
g10
S'L'
p290
sg18
F0.17
sg21
S'e'
p291
sg25
F1.274
ssg15
S'12.2'
p292
sbsI45
(idataset.study
Study
p293
(dp294
g7
I45
sg8
(dp295
g10
S'H'
p296
sg18
F0.29
sg21
S'e'
p297
sg25
F1.776
ssg15
S'12.2-2'
p298
sbsI46
(idataset.study
Study
p299
(dp300
g7
I46
sg8
(dp301
g10
S'L'
p302
sg18
F0.203
sg21
S'e'
p303
sg25
F0.0
ssg15
S'12.3'
p304
sbsI47
(idataset.study
Study
p305
(dp306
g7
I47
sg8
(dp307
g10
S'H'
p308
sg18
F1.351
sg21
S'e'
p309
sg25
F0.57
ssg15
S'12.3-2'
p310
sbsI48
(idataset.study
Study
p311
(dp312
g7
I48
sg8
(dp313
g10
S'L'
p314
sg18
F0.134
sg21
S'e'
p315
sg25
F0.94
ssg15
S'12.4'
p316
sbsI49
(idataset.study
Study
p317
(dp318
g7
I49
sg8
(dp319
g10
S'H'
p320
sg18
F0.184
sg21
S'e'
p321
sg25
F2.003
ssg15
S'12.4-2'
p322
sbsI50
(idataset.study
Study
p323
(dp324
g7
I50
sg8
(dp325
g10
S'L'
p326
sg18
F0.551
sg21
S'e'
p327
sg25
F-0.815
ssg15
S'13.1'
p328
sbsI51
(idataset.study
Study
p329
(dp330
g7
I51
sg8
(dp331
g10
S'H'
p332
sg18
F0.963
sg21
S'e'
p333
sg25
F1.218
ssg15
S'13.1-2'
p334
sbsI52
(idataset.study
Study
p335
(dp336
g7
I52
sg8
(dp337
g10
S'L'
p338
sg18
F1.535
sg21
S'e'
p339
sg25
F-0.063
ssg15
S'13.2'
p340
sbsI53
(idataset.study
Study
p341
(dp342
g7
I53
sg8
(dp343
g10
S'H'
p344
sg18
F1.202
sg21
S'e'
p345
sg25
F-0.401
ssg15
S'13.2-2'
p346
sbsI54
(idataset.study
Study
p347
(dp348
g7
I54
sg8
(dp349
g10
S'L'
p350
sg18
F0.963
sg21
S'e'
p351
sg25
F-0.708
ssg15
S'13.3'
p352
sbsI55
(idataset.study
Study
p353
(dp354
g7
I55
sg8
(dp355
g10
S'H'
p356
sg18
F0.309
sg21
S'e'
p357
sg25
F-0.686
ssg15
S'13.3-2'
p358
sbsI56
(idataset.study
Study
p359
(dp360
g7
I56
sg8
(dp361
g10
S'L'
p362
sg18
F0.309
sg21
S'e'
p363
sg25
F-0.686
ssg15
S'14.1'
p364
sbsI57
(idataset.study
Study
p365
(dp366
g7
I57
sg8
(dp367
g10
S'H'
p368
sg18
F0.274
sg21
S'e'
p369
sg25
F-0.633
ssg15
S'14.1-2'
p370
sbsI58
(idataset.study
Study
p371
(dp372
g7
I58
sg8
(dp373
g10
S'L'
p374
sg18
F0.421
sg21
S'e'
p375
sg25
F-0.197
ssg15
S'14.2'
p376
sbsI59
(idataset.study
Study
p377
(dp378
g7
I59
sg8
(dp379
g10
S'H'
p380
sg18
F0.269
sg21
S'e'
p381
sg25
F-1.959
ssg15
S'14.2-2'
p382
sbsI60
(idataset.study
Study
p383
(dp384
g7
I60
sg8
(dp385
g10
S'L'
p386
sg18
F0.146
sg21
S'e'
p387
sg25
F0.586
ssg15
S'15.1'
p388
sbsI61
(idataset.study
Study
p389
(dp390
g7
I61
sg8
(dp391
g10
S'H'
p392
sg18
F0.377
sg21
S'e'
p393
sg25
F1.814
ssg15
S'15.1-2'
p394
sbsI62
(idataset.study
Study
p395
(dp396
g7
I62
sg8
(dp397
g10
S'L'
p398
sg18
F0.396
sg21
S'e'
p399
sg25
F1.817
ssg15
S'15.2'
p400
sbsI63
(idataset.study
Study
p401
(dp402
g7
I63
sg8
(dp403
g10
S'H'
p404
sg18
F1.358
sg21
S'e'
p405
sg25
F0.716
ssg15
S'15.2-2'
p406
sbsI64
(idataset.study
Study
p407
(dp408
g7
I64
sg8
(dp409
g10
S'L'
p410
sg18
F1.356
sg21
S'e'
p411
sg25
F-0.678
ssg15
S'15.3'
p412
sbsI65
(idataset.study
Study
p413
(dp414
g7
I65
sg8
(dp415
g10
S'H'
p416
sg18
F2.02
sg21
S'e'
p417
sg25
F0.019
ssg15
S'15.3-2'
p418
sbsI66
(idataset.study
Study
p419
(dp420
g7
I66
sg8
(dp421
g10
S'L'
p422
sg18
F2.066
sg21
S'e'
p423
sg25
F-0.312
ssg15
S'15.4'
p424
sbsI67
(idataset.study
Study
p425
(dp426
g7
I67
sg8
(dp427
g10
S'H'
p428
sg18
F2.07
sg21
S'e'
p429
sg25
F0.309
ssg15
S'15.4-2'
p430
sbsI68
(idataset.study
Study
p431
(dp432
g7
I68
sg8
(dp433
g10
S'L'
p434
sg18
F0.393
sg21
S'e'
p435
sg25
F0.245
ssg15
S'15.5'
p436
sbsI69
(idataset.study
Study
p437
(dp438
g7
I69
sg8
(dp439
g10
S'H'
p440
sg18
F1.024
sg21
S'e'
p441
sg25
F-0.949
ssg15
S'15.5-2'
p442
sbsI70
(idataset.study
Study
p443
(dp444
g7
I70
sg8
(dp445
g10
S'L'
p446
sg18
F0.522
sg21
S'e'
p447
sg25
F-0.783
ssg15
S'16.1'
p448
sbsI71
(idataset.study
Study
p449
(dp450
g7
I71
sg8
(dp451
g10
S'H'
p452
sg18
F0.462
sg21
S'e'
p453
sg25
F-1.074
ssg15
S'16.1-2'
p454
sbsI72
(idataset.study
Study
p455
(dp456
g7
I72
sg8
(dp457
g10
S'L'
p458
sg18
F0.367
sg21
S'e'
p459
sg25
F1.382
ssg15
S'17.1'
p460
sbsI73
(idataset.study
Study
p461
(dp462
g7
I73
sg8
(dp463
g10
S'H'
p464
sg18
F0.307
sg21
S'e'
p465
sg25
F-0.307
ssg15
S'17.1-2'
p466
sbsI74
(idataset.study
Study
p467
(dp468
g7
I74
sg8
(dp469
g10
S'L'
p470
sg18
F0.265
sg21
S'e'
p471
sg25
F0.927
ssg15
S'18.1'
p472
sbsI75
(idataset.study
Study
p473
(dp474
g7
I75
sg8
(dp475
g10
S'H'
p476
sg18
F1.386
sg21
S'e'
p477
sg25
F0.693
ssg15
S'18.1-2'
p478
sbsI76
(idataset.study
Study
p479
(dp480
g7
I76
sg8
(dp481
g10
S'L'
p482
sg18
F2.034
sg21
S'e'
p483
sg25
F-0.088
ssg15
S'19.1'
p484
sbsI77
(idataset.study
Study
p485
(dp486
g7
I77
sg8
(dp487
g10
S'H'
p488
sg18
F2.049
sg21
S'e'
p489
sg25
F0.202
ssg15
S'19.1-2'
p490
sbsI78
(idataset.study
Study
p491
(dp492
g7
I78
sg8
(dp493
g10
S'L'
p494
sg18
F2.034
sg21
S'e'
p495
sg25
F-0.088
ssg15
S'19.2'
p496
sbsI79
(idataset.study
Study
p497
(dp498
g7
I79
sg8
(dp499
g10
S'H'
p500
sg18
F2.049
sg21
S'e'
p501
sg25
F0.202
ssg15
S'19.2-2'
p502
sbsI80
(idataset.study
Study
p503
(dp504
g7
I80
sg8
(dp505
g10
S'L'
p506
sg18
F0.236
sg21
S'e'
p507
sg25
F-0.286
ssg15
S'20.1'
p508
sbsI81
(idataset.study
Study
p509
(dp510
g7
I81
sg8
(dp511
g10
S'H'
p512
sg18
F0.288
sg21
S'e'
p513
sg25
F0.604
ssg15
S'20.1-2'
p514
sbsI82
(idataset.study
Study
p515
(dp516
g7
I82
sg8
(dp517
g10
S'L'
p518
sg18
F0.509
sg21
S'e'
p519
sg25
F-0.764
ssg15
S'21.1'
p520
sbsI83
(idataset.study
Study
p521
(dp522
g7
I83
sg8
(dp523
g10
S'H'
p524
sg18
F0.724
sg21
S'e'
p525
sg25
F-1.448
ssg15
S'21.1-2'
p526
sbsI84
(idataset.study
Study
p527
(dp528
g7
I84
sg8
(dp529
g10
S'L'
p530
sg18
F0.467
sg21
S'e'
p531
sg25
F-0.933
ssg15
S'21.2'
p532
sbsI85
(idataset.study
Study
p533
(dp534
g7
I85
sg8
(dp535
g10
S'H'
p536
sg18
F0.563
sg21
S'e'
p537
sg25
F-0.563
ssg15
S'21.2-2'
p538
sbsI86
(idataset.study
Study
p539
(dp540
g7
I86
sg8
(dp541
g10
S'L'
p542
sg18
F0.263
sg21
S'e'
p543
sg25
F-0.788
ssg15
S'21.3'
p544
sbsI87
(idataset.study
Study
p545
(dp546
g7
I87
sg8
(dp547
g10
S'H'
p548
sg18
F0.247
sg21
S'e'
p549
sg25
F-0.988
ssg15
S'21.3-2'
p550
sbsI88
(idataset.study
Study
p551
(dp552
g7
I88
sg8
(dp553
g10
S'L'
p554
sg18
F0.263
sg21
S'e'
p555
sg25
F1.05
ssg15
S'21.4'
p556
sbsI89
(idataset.study
Study
p557
(dp558
g7
I89
sg8
(dp559
g10
S'H'
p560
sg18
F0.259
sg21
S'e'
p561
sg25
F-0.129
ssg15
S'21.4-2'
p562
sbsI90
(idataset.study
Study
p563
(dp564
g7
I90
sg8
(dp565
g10
S'L'
p566
sg18
F0.682
sg21
S'e'
p567
sg25
F1.704
ssg15
S'22.1'
p568
sbsI91
(idataset.study
Study
p569
(dp570
g7
I91
sg8
(dp571
g10
S'H'
p572
sg18
F0.719
sg21
S'e'
p573
sg25
F2.156
ssg15
S'22.1-2'
p574
sbsI92
(idataset.study
Study
p575
(dp576
g7
I92
sg8
(dp577
g10
S'L'
p578
sg18
F0.176
sg21
S'e'
p579
sg25
F0.967
ssg15
S'22.2'
p580
sbsI93
(idataset.study
Study
p581
(dp582
g7
I93
sg8
(dp583
g10
S'H'
p584
sg18
F0.164
sg21
S'e'
p585
sg25
F0.657
ssg15
S'22.2-2'
p586
sbsI94
(idataset.study
Study
p587
(dp588
g7
I94
sg8
(dp589
g10
S'L'
p590
sg18
F0.405
sg21
S'e'
p591
sg25
F0.444
ssg15
S'23.1'
p592
sbsI95
(idataset.study
Study
p593
(dp594
g7
I95
sg8
(dp595
g10
S'H'
p596
sg18
F0.509
sg21
S'e'
p597
sg25
F0.255
ssg15
S'23.1-2'
p598
sbsI96
(idataset.study
Study
p599
(dp600
g7
I96
sg8
(dp601
g10
S'L'
p602
sg18
F0.259
sg21
S'e'
p603
sg25
F0.129
ssg15
S'23.2'
p604
sbsI97
(idataset.study
Study
p605
(dp606
g7
I97
sg8
(dp607
g10
S'H'
p608
sg18
F0.26
sg21
S'e'
p609
sg25
F0.569
ssg15
S'23.2-2'
p610
sbsI98
(idataset.study
Study
p611
(dp612
g7
I98
sg8
(dp613
g10
S'L'
p614
sg18
F0.404
sg21
S'e'
p615
sg25
F0.0
ssg15
S'23.3'
p616
sbsI99
(idataset.study
Study
p617
(dp618
g7
I99
sg8
(dp619
g10
S'H'
p620
sg18
F0.36
sg21
S'e'
p621
sg25
F0.0
ssg15
S'23.3-2'
p622
sbsI100
(idataset.study
Study
p623
(dp624
g7
I100
sg8
(dp625
g10
S'L'
p626
sg18
F0.231
sg21
S'e'
p627
sg25
F-1.66
ssg15
S'23.4'
p628
sbsI101
(idataset.study
Study
p629
(dp630
g7
I101
sg8
(dp631
g10
S'H'
p632
sg18
F0.293
sg21
S'e'
p633
sg25
F-0.983
ssg15
S'23.4-2'
p634
sbsI102
(idataset.study
Study
p635
(dp636
g7
I102
sg8
(dp637
g10
S'L'
p638
sg18
F0.217
sg21
S'e'
p639
sg25
F-1.086
ssg15
S'24.1'
p640
sbsI103
(idataset.study
Study
p641
(dp642
g7
I103
sg8
(dp643
g10
S'H'
p644
sg18
F0.608
sg21
S'e'
p645
sg25
F-1.521
ssg15
S'24.1-2'
p646
sbsI104
(idataset.study
Study
p647
(dp648
g7
I104
sg8
(dp649
g10
S'L'
p650
sg18
F2.062
sg21
S'e'
p651
sg25
F-0.786
ssg15
S'25.1'
p652
sbsI105
(idataset.study
Study
p653
(dp654
g7
I105
sg8
(dp655
g10
S'H'
p656
sg18
F1.507
sg21
S'e'
p657
sg25
F-0.219
ssg15
S'25.1-2'
p658
sbsI106
(idataset.study
Study
p659
(dp660
g7
I106
sg8
(dp661
g10
S'L'
p662
sg18
F0.506
sg21
S'e'
p663
sg25
F1.012
ssg15
S'26.1'
p664
sbsI107
(idataset.study
Study
p665
(dp666
g7
I107
sg8
(dp667
g10
S'H'
p668
sg18
F0.506
sg21
S'e'
p669
sg25
F-2.024
ssg15
S'26.1-2'
p670
sbsI108
(idataset.study
Study
p671
(dp672
g7
I108
sg8
(dp673
g10
S'L'
p674
sg18
F0.833
sg21
S'e'
p675
sg25
F1.25
ssg15
S'26.2'
p676
sbsI109
(idataset.study
Study
p677
(dp678
g7
I109
sg8
(dp679
g10
S'H'
p680
sg18
F0.212
sg21
S'e'
p681
sg25
F-1.491
ssg15
S'26.2-2'
p682
sbssS'conf_level'
p683
I95
sS'dirty'
p684
I01
sS'variable_groups'
p685
(lp686
sS'last_analysis_selections'
p687
(dp688
S'bootstrap_params'
p689
NsS'fixed_effects'
p690
NsS'included_covariates'
p691
NsS'data_type'
p692
NsS'funnel_params'
p693
NsS'included_studies'
p694
NsS'data_locations'
p695
(dp696
I0
(dp697
sI1
(dp698
sI2
(dp699
ssS'cov_2_ref_values'
p700
NsS'method'
p701
NsS'analysis_type'
p702
I0
sg683
NsS'selected_cov'
p703
NsS'knha'
p704
I00
sS'failsafe_parameters'
p705
NsS'covs_to_values'
p706
NsS'random_effects_method'
p707
S'REML'
p708
sS'phylogen'
p709
I00
sS'metric'
p710
NsS'ma_param_vals'
p711
NsS'subgroup_variable'
p712
NssS'dataset'
p713
(idataset.ee_dataset
EEDataSet
p714
(dp715
S'variable_collection'
p716
ccopy_reg
_reconstructor
p717
(cdataset.variable_collection
VariableCollection
p718
c__builtin__
object
p719
Ntp720
Rp721
(dp722
S'item_class'
p723
cdataset.variable
Variable
p724
sS'ids_to_items'
p725
(dp726
I1
g21
sI2
g10
sI3
g25
sI4
g18
ssbsS'study_collection'
p727
g717
(cdataset.study_collection
StudyCollection
p728
g719
Ntp729
Rp730
(dp731
g723
cdataset.study
Study
p732
sg725
(dp733
I0
g5
sI1
g29
sI2
g35
sI3
g41
sI4
g47
sI5
g53
sI6
g59
sI7
g65
sI8
g71
sI9
g77
sI10
g83
sI11
g89
sI12
g95
sI13
g101
sI14
g107
sI15
g113
sI16
g119
sI17
g125
sI18
g131
sI19
g137
sI20
g143
sI21
g149
sI22
g155
sI23
g161
sI24
g167
sI25
g173
sI26
g179
sI27
g185
sI28
g191
sI29
g197
sI30
g203
sI31
g209
sI32
g215
sI33
g221
sI34
g227
sI35
g233
sI36
g239
sI37
g245
sI38
g251
sI39
g257
sI40
g263
sI41
g269
sI42
g275
sI43
g281
sI44
g287
sI45
g293
sI46
g299
sI47
g305
sI48
g311
sI49
g317
sI50
g323
sI51
g329
sI52
g335
sI53
g341
sI54
g347
sI55
g353
sI56
g359
sI57
g365
sI58
g371
sI59
g377
sI60
g383
sI61
g389
sI62
g395
sI63
g401
sI64
g407
sI65
g413
sI66
g419
sI67
g425
sI68
g431
sI69
g437
sI70
g443
sI71
g449
sI72
g455
sI73
g461
sI74
g467
sI75
g473
sI76
g479
sI77
g485
sI78
g491
sI79
g497
sI80
g503
sI81
g509
sI82
g515
sI83
g521
sI84
g527
sI85
g533
sI86
g539
sI87
g545
sI88
g551
sI89
g557
sI90
g563
sI91
g569
sI92
g575
sI93
g581
sI94
g587
sI95
g593
sI96
g599
sI97
g605
sI98
g611
sI99
g617
sI100
g623
sI101
g629
sI102
g635
sI103
g641
sI104
g647
sI105
g653
sI106
g659
sI107
g665
sI108
g671
sI109
g677
ssbsbsS'cols_2_vars'
p734
(dp735
I1
g21
sI2
g10
sI3
g25
sI4
g18
ssS'label_column_name_label'
p736
S'study'
p737
sb.