(iee_model
ModelState
p0
(dp1
S'label_column'
p2
I0
sS'rows_2_studies'
p3
(dp4
I0
(idataset.study
Study
p5
(dp6
S'study_id'
p7
I0
sS'variables'
p8
(dp9
(idataset.variable
Variable
p10
(dp11
S'var_id'
p12
I1
sS'sub_type'
p13
NsS'var_type'
p14
I0
sS'label'
p15
S'expt'
p16
sbS'e'
p17
s(idataset.variable
Variable
p18
(dp19
g12
I3
sg13
I0
sg14
I1
sg15
S'Hedges D'
p20
sbF-2.639
s(idataset.variable
Variable
p21
(dp22
g12
I2
sg13
Nsg14
I0
sg15
S'stress'
p23
sbS'L'
p24
s(idataset.variable
Variable
p25
(dp26
g12
I4
sg13
I1
sg14
I1
sg15
S'Var'
p27
sbF0.535
ssg15
S'1.1'
p28
sbsI1
(idataset.study
Study
p29
(dp30
g7
I1
sg8
(dp31
g10
S'e'
p32
sg18
F-2.875
sg21
S'H'
p33
sg25
F0.581
ssg15
S'1.1-2'
p34
sbsI2
(idataset.study
Study
p35
(dp36
g7
I2
sg8
(dp37
g10
S'e'
p38
sg18
F-1.999
sg21
S'L'
p39
sg25
F0.4285
ssg15
S'1.2'
p40
sbsI3
(idataset.study
Study
p41
(dp42
g7
I3
sg8
(dp43
g10
S'e'
p44
sg18
F-2.097
sg21
S'H'
p45
sg25
F0.4428
ssg15
S'1.2-2'
p46
sbsI4
(idataset.study
Study
p47
(dp48
g7
I4
sg8
(dp49
g10
S'e'
p50
sg18
F0.593
sg21
S'L'
p51
sg25
F0.104
ssg15
S'2.1'
p52
sbsI5
(idataset.study
Study
p53
(dp54
g7
I5
sg8
(dp55
g10
S'e'
p56
sg18
F1.529
sg21
S'H'
p57
sg25
F0.129
ssg15
S'2.1-2'
p58
sbsI6
(idataset.study
Study
p59
(dp60
g7
I6
sg8
(dp61
g10
S'e'
p62
sg18
F0.654
sg21
S'L'
p63
sg25
F0.053
ssg15
S'2.2'
p64
sbsI7
(idataset.study
Study
p65
(dp66
g7
I7
sg8
(dp67
g10
S'e'
p68
sg18
F1.554
sg21
S'H'
p69
sg25
F0.065
ssg15
S'2.2-2'
p70
sbsI8
(idataset.study
Study
p71
(dp72
g7
I8
sg8
(dp73
g10
S'o'
p74
sg18
F1.235
sg21
S'L'
p75
sg25
F0.032
ssg15
S'3.1'
p76
sbsI9
(idataset.study
Study
p77
(dp78
g7
I9
sg8
(dp79
g10
S'o'
p80
sg18
F0.46
sg21
S'H'
p81
sg25
F0.027
ssg15
S'3.1-2'
p82
sbsI10
(idataset.study
Study
p83
(dp84
g7
I10
sg8
(dp85
g10
S'o'
p86
sg18
F-0.394
sg21
S'L'
p87
sg25
F0.027
ssg15
S'3.2'
p88
sbsI11
(idataset.study
Study
p89
(dp90
g7
I11
sg8
(dp91
g10
S'o'
p92
sg18
F-0.115
sg21
S'H'
p93
sg25
F0.027
ssg15
S'3.2-2'
p94
sbsI12
(idataset.study
Study
p95
(dp96
g7
I12
sg8
(dp97
g10
S'o'
p98
sg18
F0.624
sg21
S'L'
p99
sg25
F0.028
ssg15
S'3.3'
p100
sbsI13
(idataset.study
Study
p101
(dp102
g7
I13
sg8
(dp103
g10
S'o'
p104
sg18
F-0.181
sg21
S'H'
p105
sg25
F0.027
ssg15
S'3.3-2'
p106
sbsI14
(idataset.study
Study
p107
(dp108
g7
I14
sg8
(dp109
g10
S'e'
p110
sg18
F-1.199
sg21
S'L'
p111
sg25
F0.168
ssg15
S'4.1'
p112
sbsI15
(idataset.study
Study
p113
(dp114
g7
I15
sg8
(dp115
g10
S'e'
p116
sg18
F-4.783
sg21
S'H'
p117
sg25
F0.551
ssg15
S'4.1-2'
p118
sbsI16
(idataset.study
Study
p119
(dp120
g7
I16
sg8
(dp121
g10
S'o'
p122
sg18
F0.941
sg21
S'L'
p123
sg25
F0.067
ssg15
S'5.1'
p124
sbsI17
(idataset.study
Study
p125
(dp126
g7
I17
sg8
(dp127
g10
S'o'
p128
sg18
F1.079
sg21
S'H'
p129
sg25
F0.065
ssg15
S'5.1-2'
p130
sbsI18
(idataset.study
Study
p131
(dp132
g7
I18
sg8
(dp133
g10
S'o'
p134
sg18
F0.44
sg21
S'L'
p135
sg25
F0.06
ssg15
S'5.2'
p136
sbsI19
(idataset.study
Study
p137
(dp138
g7
I19
sg8
(dp139
g10
S'o'
p140
sg18
F0.717
sg21
S'H'
p141
sg25
F0.062
ssg15
S'5.2-2'
p142
sbsI20
(idataset.study
Study
p143
(dp144
g7
I20
sg8
(dp145
g10
S'o'
p146
sg18
F0.188
sg21
S'L'
p147
sg25
F0.059
ssg15
S'5.3'
p148
sbsI21
(idataset.study
Study
p149
(dp150
g7
I21
sg8
(dp151
g10
S'o'
p152
sg18
F0.125
sg21
S'H'
p153
sg25
F0.058
ssg15
S'5.3-2'
p154
sbsI22
(idataset.study
Study
p155
(dp156
g7
I22
sg8
(dp157
g10
S'e'
p158
sg18
F-0.193
sg21
S'L'
p159
sg25
F0.452
ssg15
S'6.1'
p160
sbsI23
(idataset.study
Study
p161
(dp162
g7
I23
sg8
(dp163
g10
S'e'
p164
sg18
F0.175
sg21
S'H'
p165
sg25
F0.586
ssg15
S'6.1-2'
p166
sbsI24
(idataset.study
Study
p167
(dp168
g7
I24
sg8
(dp169
g10
S'e'
p170
sg18
F-1.391
sg21
S'L'
p171
sg25
F0.558
ssg15
S'6.2'
p172
sbsI25
(idataset.study
Study
p173
(dp174
g7
I25
sg8
(dp175
g10
S'e'
p176
sg18
F0.026
sg21
S'H'
p177
sg25
F0.417
ssg15
S'6.2-2'
p178
sbsI26
(idataset.study
Study
p179
(dp180
g7
I26
sg8
(dp181
g10
S'o'
p182
sg18
F3.105
sg21
S'L'
p183
sg25
F0.441
ssg15
S'7.1'
p184
sbsI27
(idataset.study
Study
p185
(dp186
g7
I27
sg8
(dp187
g10
S'o'
p188
sg18
F2.531
sg21
S'H'
p189
sg25
F0.36
ssg15
S'7.1-2'
p190
sbsI28
(idataset.study
Study
p191
(dp192
g7
I28
sg8
(dp193
g10
S'o'
p194
sg18
F4.372
sg21
S'L'
p195
sg25
F0.678
ssg15
S'7.2'
p196
sbsI29
(idataset.study
Study
p197
(dp198
g7
I29
sg8
(dp199
g10
S'o'
p200
sg18
F2.184
sg21
S'H'
p201
sg25
F0.319
ssg15
S'7.2-2'
p202
sbsI30
(idataset.study
Study
p203
(dp204
g7
I30
sg8
(dp205
g10
S'o'
p206
sg18
F2.948
sg21
S'L'
p207
sg25
F0.417
ssg15
S'7.3'
p208
sbsI31
(idataset.study
Study
p209
(dp210
g7
I31
sg8
(dp211
g10
S'o'
p212
sg18
F3.592
sg21
S'H'
p213
sg25
F0.523
ssg15
S'7.3-2'
p214
sbsI32
(idataset.study
Study
p215
(dp216
g7
I32
sg8
(dp217
g10
S'o'
p218
sg18
F3.201
sg21
S'L'
p219
sg25
F0.456
ssg15
S'7.4'
p220
sbsI33
(idataset.study
Study
p221
(dp222
g7
I33
sg8
(dp223
g10
S'o'
p224
sg18
F1.207
sg21
S'H'
p225
sg25
F0.236
ssg15
S'7.4-2'
p226
sbsI34
(idataset.study
Study
p227
(dp228
g7
I34
sg8
(dp229
g10
S'e'
p230
sg18
F-0.536
sg21
S'L'
p231
sg25
F0.691
ssg15
S'8.1'
p232
sbsI35
(idataset.study
Study
p233
(dp234
g7
I35
sg8
(dp235
g10
S'e'
p236
sg18
F-0.24
sg21
S'H'
p237
sg25
F0.403
ssg15
S'8.1-2'
p238
sbsI36
(idataset.study
Study
p239
(dp240
g7
I36
sg8
(dp241
g10
S'e'
p242
sg18
F-0.664
sg21
S'L'
p243
sg25
F0.561
ssg15
S'8.2'
p244
sbsI37
(idataset.study
Study
p245
(dp246
g7
I37
sg8
(dp247
g10
S'e'
p248
sg18
F0.217
sg21
S'H'
p249
sg25
F0.292
ssg15
S'8.2-2'
p250
sbsI38
(idataset.study
Study
p251
(dp252
g7
I38
sg8
(dp253
g10
S'e'
p254
sg18
F-0.277
sg21
S'L'
p255
sg25
F0.337
ssg15
S'9.1'
p256
sbsI39
(idataset.study
Study
p257
(dp258
g7
I39
sg8
(dp259
g10
S'e'
p260
sg18
F-0.333
sg21
S'H'
p261
sg25
F0.338
ssg15
S'9.1-2'
p262
sbsI40
(idataset.study
Study
p263
(dp264
g7
I40
sg8
(dp265
g10
S'e'
p266
sg18
F-1.095
sg21
S'L'
p267
sg25
F0.383
ssg15
S'9.2'
p268
sbsI41
(idataset.study
Study
p269
(dp270
g7
I41
sg8
(dp271
g10
S'e'
p272
sg18
F-0.99
sg21
S'H'
p273
sg25
F0.374
ssg15
S'9.2-2'
p274
sbsI42
(idataset.study
Study
p275
(dp276
g7
I42
sg8
(dp277
g10
S'e'
p278
sg18
F-1.888
sg21
S'L'
p279
sg25
F0.146
ssg15
S'10.1'
p280
sbsI43
(idataset.study
Study
p281
(dp282
g7
I43
sg8
(dp283
g10
S'e'
p284
sg18
F-1.299
sg21
S'H'
p285
sg25
F0.156
ssg15
S'10.1-2'
p286
sbsI44
(idataset.study
Study
p287
(dp288
g7
I44
sg8
(dp289
g10
S'e'
p290
sg18
F-0.881
sg21
S'L'
p291
sg25
F0.098
ssg15
S'10.2'
p292
sbsI45
(idataset.study
Study
p293
(dp294
g7
I45
sg8
(dp295
g10
S'e'
p296
sg18
F-0.314
sg21
S'H'
p297
sg25
F0.148
ssg15
S'10.2-2'
p298
sbsI46
(idataset.study
Study
p299
(dp300
g7
I46
sg8
(dp301
g10
S'e'
p302
sg18
F1.277
sg21
S'L'
p303
sg25
F0.482
ssg15
S'11.1'
p304
sbsI47
(idataset.study
Study
p305
(dp306
g7
I47
sg8
(dp307
g10
S'e'
p308
sg18
F1.029
sg21
S'H'
p309
sg25
F0.453
ssg15
S'11.1-2'
p310
sbsI48
(idataset.study
Study
p311
(dp312
g7
I48
sg8
(dp313
g10
S'e'
p314
sg18
F0.055
sg21
S'L'
p315
sg25
F0.044
ssg15
S'12.1'
p316
sbsI49
(idataset.study
Study
p317
(dp318
g7
I49
sg8
(dp319
g10
S'e'
p320
sg18
F-0.062
sg21
S'H'
p321
sg25
F0.097
ssg15
S'12.1-2'
p322
sbsI50
(idataset.study
Study
p323
(dp324
g7
I50
sg8
(dp325
g10
S'e'
p326
sg18
F0.399
sg21
S'L'
p327
sg25
F0.128
ssg15
S'13.1'
p328
sbsI51
(idataset.study
Study
p329
(dp330
g7
I51
sg8
(dp331
g10
S'e'
p332
sg18
F-0.923
sg21
S'H'
p333
sg25
F0.144
ssg15
S'13.1-2'
p334
sbsI52
(idataset.study
Study
p335
(dp336
g7
I52
sg8
(dp337
g10
S'o'
p338
sg18
F-1.172
sg21
S'L'
p339
sg25
F0.781
ssg15
S'14.1'
p340
sbsI53
(idataset.study
Study
p341
(dp342
g7
I53
sg8
(dp343
g10
S'o'
p344
sg18
F-0.325
sg21
S'H'
p345
sg25
F0.675
ssg15
S'14.1-2'
p346
sbsI54
(idataset.study
Study
p347
(dp348
g7
I54
sg8
(dp349
g10
S'e'
p350
sg18
F-0.658
sg21
S'L'
p351
sg25
F0.703
ssg15
S'15.1'
p352
sbsI55
(idataset.study
Study
p353
(dp354
g7
I55
sg8
(dp355
g10
S'e'
p356
sg18
F-0.497
sg21
S'H'
p357
sg25
F0.687
ssg15
S'15.1-2'
p358
sbsI56
(idataset.study
Study
p359
(dp360
g7
I56
sg8
(dp361
g10
S'o'
p362
sg18
F-0.349
sg21
S'L'
p363
sg25
F0.047
ssg15
S'16.1'
p364
sbsI57
(idataset.study
Study
p365
(dp366
g7
I57
sg8
(dp367
g10
S'o'
p368
sg18
F-0.241
sg21
S'H'
p369
sg25
F0.042
ssg15
S'16.1-2'
p370
sbsI58
(idataset.study
Study
p371
(dp372
g7
I58
sg8
(dp373
g10
S'e'
p374
sg18
F-2.791
sg21
S'L'
p375
sg25
F0.1492
ssg15
S'17.1'
p376
sbsI59
(idataset.study
Study
p377
(dp378
g7
I59
sg8
(dp379
g10
S'e'
p380
sg18
F-1.906
sg21
S'H'
p381
sg25
F0.1042
ssg15
S'17.1-2'
p382
sbsI60
(idataset.study
Study
p383
(dp384
g7
I60
sg8
(dp385
g10
S'e'
p386
sg18
F-3.837
sg21
S'L'
p387
sg25
F0.219
ssg15
S'17.2'
p388
sbsI61
(idataset.study
Study
p389
(dp390
g7
I61
sg8
(dp391
g10
S'e'
p392
sg18
F-2.037
sg21
S'H'
p393
sg25
F0.113
ssg15
S'17.2-2'
p394
sbsI62
(idataset.study
Study
p395
(dp396
g7
I62
sg8
(dp397
g10
S'e'
p398
sg18
F-3.3
sg21
S'L'
p399
sg25
F0.444
ssg15
S'17.3'
p400
sbsI63
(idataset.study
Study
p401
(dp402
g7
I63
sg8
(dp403
g10
S'e'
p404
sg18
F-3.909
sg21
S'H'
p405
sg25
F0.428
ssg15
S'17.3-2'
p406
sbsI64
(idataset.study
Study
p407
(dp408
g7
I64
sg8
(dp409
g10
S'e'
p410
sg18
F0.124
sg21
S'L'
p411
sg25
F0.11
ssg15
S'17.4'
p412
sbsI65
(idataset.study
Study
p413
(dp414
g7
I65
sg8
(dp415
g10
S'e'
p416
sg18
F0.145
sg21
S'H'
p417
sg25
F0.109
ssg15
S'17.4-2'
p418
sbsI66
(idataset.study
Study
p419
(dp420
g7
I66
sg8
(dp421
g10
S'e'
p422
sg18
F-0.95
sg21
S'L'
p423
sg25
F0.396
ssg15
S'18.1'
p424
sbsI67
(idataset.study
Study
p425
(dp426
g7
I67
sg8
(dp427
g10
S'e'
p428
sg18
F-4.092
sg21
S'H'
p429
sg25
F0.948
ssg15
S'18.1-2'
p430
sbsI68
(idataset.study
Study
p431
(dp432
g7
I68
sg8
(dp433
g10
S'e'
p434
sg18
F-2.067
sg21
S'L'
p435
sg25
F0.307
ssg15
S'18.2'
p436
sbsI69
(idataset.study
Study
p437
(dp438
g7
I69
sg8
(dp439
g10
S'e'
p440
sg18
F-1.541
sg21
S'H'
p441
sg25
F0.259
ssg15
S'18.2-2'
p442
sbsI70
(idataset.study
Study
p443
(dp444
g7
I70
sg8
(dp445
g10
S'e'
p446
sg18
F-1.928
sg21
S'L'
p447
sg25
F0.12
ssg15
S'19.1'
p448
sbsI71
(idataset.study
Study
p449
(dp450
g7
I71
sg8
(dp451
g10
S'e'
p452
sg18
F0.071
sg21
S'H'
p453
sg25
F0.076
ssg15
S'19.1-2'
p454
sbsI72
(idataset.study
Study
p455
(dp456
g7
I72
sg8
(dp457
g10
S'e'
p458
sg18
F-1.759
sg21
S'L'
p459
sg25
F0.242
ssg15
S'19.2'
p460
sbsI73
(idataset.study
Study
p461
(dp462
g7
I73
sg8
(dp463
g10
S'e'
p464
sg18
F-1.38
sg21
S'H'
p465
sg25
F0.231
ssg15
S'19.2-2'
p466
sbsI74
(idataset.study
Study
p467
(dp468
g7
I74
sg8
(dp469
g10
S'e'
p470
sg18
F-1.042
sg21
S'L'
p471
sg25
F0.454
ssg15
S'19.3'
p472
sbsI75
(idataset.study
Study
p473
(dp474
g7
I75
sg8
(dp475
g10
S'e'
p476
sg18
F-0.981
sg21
S'H'
p477
sg25
F0.374
ssg15
S'19.3-2'
p478
sbsI76
(idataset.study
Study
p479
(dp480
g7
I76
sg8
(dp481
g10
S'e'
p482
sg18
F-0.342
sg21
S'L'
p483
sg25
F0.175
ssg15
S'19.4'
p484
sbsI77
(idataset.study
Study
p485
(dp486
g7
I77
sg8
(dp487
g10
S'e'
p488
sg18
F0.406
sg21
S'H'
p489
sg25
F0.288
ssg15
S'19.4-2'
p490
sbsI78
(idataset.study
Study
p491
(dp492
g7
I78
sg8
(dp493
g10
S'e'
p494
sg18
F-1.124
sg21
S'L'
p495
sg25
F0.173
ssg15
S'20.1'
p496
sbsI79
(idataset.study
Study
p497
(dp498
g7
I79
sg8
(dp499
g10
S'e'
p500
sg18
F-1.395
sg21
S'H'
p501
sg25
F0.277
ssg15
S'20.1-2'
p502
sbsI80
(idataset.study
Study
p503
(dp504
g7
I80
sg8
(dp505
g10
S'e'
p506
sg18
F-0.874
sg21
S'L'
p507
sg25
F0.147
ssg15
S'20.2'
p508
sbsI81
(idataset.study
Study
p509
(dp510
g7
I81
sg8
(dp511
g10
S'e'
p512
sg18
F-0.946
sg21
S'H'
p513
sg25
F0.165
ssg15
S'20.2-2'
p514
sbsI82
(idataset.study
Study
p515
(dp516
g7
I82
sg8
(dp517
g10
S'e'
p518
sg18
F0.238
sg21
S'L'
p519
sg25
F0.227
ssg15
S'20.3'
p520
sbsI83
(idataset.study
Study
p521
(dp522
g7
I83
sg8
(dp523
g10
S'e'
p524
sg18
F-0.378
sg21
S'H'
p525
sg25
F0.229
ssg15
S'20.3-2'
p526
sbsI84
(idataset.study
Study
p527
(dp528
g7
I84
sg8
(dp529
g10
S'e'
p530
sg18
F-0.694
sg21
S'L'
p531
sg25
F0.157
ssg15
S'20.4'
p532
sbsI85
(idataset.study
Study
p533
(dp534
g7
I85
sg8
(dp535
g10
S'e'
p536
sg18
F-0.934
sg21
S'H'
p537
sg25
F0.148
ssg15
S'20.4-2'
p538
sbsI86
(idataset.study
Study
p539
(dp540
g7
I86
sg8
(dp541
g10
S'o'
p542
sg18
F0.64
sg21
S'L'
p543
sg25
F0.21
ssg15
S'21.1'
p544
sbsI87
(idataset.study
Study
p545
(dp546
g7
I87
sg8
(dp547
g10
S'o'
p548
sg18
F3.089
sg21
S'H'
p549
sg25
F0.439
ssg15
S'21.1-2'
p550
sbsI88
(idataset.study
Study
p551
(dp552
g7
I88
sg8
(dp553
g10
S'e'
p554
sg18
F-0.107
sg21
S'L'
p555
sg25
F0.2
ssg15
S'21.2'
p556
sbsI89
(idataset.study
Study
p557
(dp558
g7
I89
sg8
(dp559
g10
S'e'
p560
sg18
F1.118
sg21
S'H'
p561
sg25
F0.231
ssg15
S'21.2-2'
p562
sbsI90
(idataset.study
Study
p563
(dp564
g7
I90
sg8
(dp565
g10
S'e'
p566
sg18
F-0.062
sg21
S'L'
p567
sg25
F0.5
ssg15
S'22.1'
p568
sbsI91
(idataset.study
Study
p569
(dp570
g7
I91
sg8
(dp571
g10
S'e'
p572
sg18
F-0.384
sg21
S'H'
p573
sg25
F0.509
ssg15
S'22.1-2'
p574
sbsI92
(idataset.study
Study
p575
(dp576
g7
I92
sg8
(dp577
g10
S'e'
p578
sg18
F4.181
sg21
S'L'
p579
sg25
F1.593
ssg15
S'22.2'
p580
sbsI93
(idataset.study
Study
p581
(dp582
g7
I93
sg8
(dp583
g10
S'e'
p584
sg18
F4.657
sg21
S'H'
p585
sg25
F1.856
ssg15
S'22.2-2'
p586
sbsI94
(idataset.study
Study
p587
(dp588
g7
I94
sg8
(dp589
g10
S'o'
p590
sg18
F0.534
sg21
S'L'
p591
sg25
F0.043
ssg15
S'23.1'
p592
sbsI95
(idataset.study
Study
p593
(dp594
g7
I95
sg8
(dp595
g10
S'o'
p596
sg18
F-0.195
sg21
S'H'
p597
sg25
F0.042
ssg15
S'23.1-2'
p598
sbsI96
(idataset.study
Study
p599
(dp600
g7
I96
sg8
(dp601
g10
S'e'
p602
sg18
F0.624
sg21
S'L'
p603
sg25
F0.3
ssg15
S'24.1'
p604
sbsI97
(idataset.study
Study
p605
(dp606
g7
I97
sg8
(dp607
g10
S'e'
p608
sg18
F0.606
sg21
S'H'
p609
sg25
F0.299
ssg15
S'24.1-2'
p610
sbsI98
(idataset.study
Study
p611
(dp612
g7
I98
sg8
(dp613
g10
S'e'
p614
sg18
F-1.27
sg21
S'L'
p615
sg25
F0.12
ssg15
S'25.1'
p616
sbsI99
(idataset.study
Study
p617
(dp618
g7
I99
sg8
(dp619
g10
S'e'
p620
sg18
F-0.617
sg21
S'H'
p621
sg25
F0.105
ssg15
S'25.1-2'
p622
sbsI100
(idataset.study
Study
p623
(dp624
g7
I100
sg8
(dp625
g10
S'e'
p626
sg18
F-3.008
sg21
S'L'
p627
sg25
F0.426
ssg15
S'26.1'
p628
sbsI101
(idataset.study
Study
p629
(dp630
g7
I101
sg8
(dp631
g10
S'e'
p632
sg18
F-1.589
sg21
S'H'
p633
sg25
F0.263
ssg15
S'26.1-2'
p634
sbssS'conf_level'
p635
I95
sS'dirty'
p636
I01
sS'variable_groups'
p637
(lp638
sS'last_analysis_selections'
p639
(dp640
S'bootstrap_params'
p641
NsS'fixed_effects'
p642
NsS'included_covariates'
p643
NsS'data_type'
p644
I0
sS'funnel_params'
p645
NsS'included_studies'
p646
c__builtin__
set
p647
((lp648
g575
ag581
ag5
ag587
ag29
ag35
ag41
ag593
ag47
ag53
ag59
ag65
ag71
ag77
ag599
ag83
ag89
ag95
ag101
ag107
ag113
ag605
ag119
ag125
ag131
ag137
ag143
ag149
ag611
ag155
ag161
ag167
ag173
ag179
ag185
ag617
ag191
ag197
ag203
ag209
ag215
ag221
ag623
ag227
ag233
ag239
ag245
ag251
ag629
ag257
ag263
ag269
ag275
ag281
ag287
ag293
ag299
ag305
ag311
ag317
ag323
ag329
ag335
ag341
ag347
ag353
ag359
ag365
ag371
ag377
ag383
ag389
ag395
ag401
ag407
ag413
ag419
ag425
ag431
ag437
ag443
ag449
ag455
ag461
ag467
ag473
ag479
ag485
ag491
ag497
ag503
ag509
ag515
ag521
ag527
ag533
ag539
ag545
ag551
ag557
ag563
ag569
atp649
Rp650
sS'data_locations'
p651
(dp652
I0
(dp653
S'variance'
p654
I5
sS'effect_size'
p655
I4
ssI1
(dp656
sI2
(dp657
ssS'cov_2_ref_values'
p658
NsS'method'
p659
S'continuous.random'
p660
sS'analysis_type'
p661
I0
sg635
NsS'selected_cov'
p662
NsS'knha'
p663
I00
sS'failsafe_parameters'
p664
NsS'covs_to_values'
p665
NsS'random_effects_method'
p666
S'REML'
p667
sS'phylogen'
p668
I00
sS'metric'
p669
I6
sS'ma_param_vals'
p670
(dp671
S'conf.level'
p672
F95.0
sS'digits'
p673
I3
sS'fp_col2_str'
p674
V[default]
p675
sS'fp_show_col4'
p676
I00
sS'fp_xlabel'
p677
V[default]
p678
sS'fp_col4_str'
p679
VEv/Ctrl
p680
sS'fp_xticks'
p681
S'[default]'
p682
sS'fp_col3_str'
p683
VEv/Trt
p684
sS'fp_show_col3'
p685
I00
sS'fp_show_col2'
p686
I01
sS'fp_show_col1'
p687
I01
sS'fp_plot_lb'
p688
g682
sS'fp_outpath'
p689
V./r_tmp/forest.png
p690
sS'rm.method'
p691
S'DL'
p692
sS'fp_plot_ub'
p693
g682
sS'fp_col1_str'
p694
VStudies
p695
sS'measure'
p696
S'GEN'
p697
sS'fp_show_summary_line'
p698
I01
ssS'subgroup_variable'
p699
NssS'dataset'
p700
(idataset.ee_dataset
EEDataSet
p701
(dp702
S'variable_collection'
p703
ccopy_reg
_reconstructor
p704
(cdataset.variable_collection
VariableCollection
p705
c__builtin__
object
p706
Ntp707
Rp708
(dp709
S'item_class'
p710
cdataset.variable
Variable
p711
sS'ids_to_items'
p712
(dp713
I1
g10
sI2
g21
sI3
g18
sI4
g25
ssbsS'study_collection'
p714
g704
(cdataset.study_collection
StudyCollection
p715
g706
Ntp716
Rp717
(dp718
g710
cdataset.study
Study
p719
sg712
(dp720
I0
g5
sI1
g29
sI2
g35
sI3
g41
sI4
g47
sI5
g53
sI6
g59
sI7
g65
sI8
g71
sI9
g77
sI10
g83
sI11
g89
sI12
g95
sI13
g101
sI14
g107
sI15
g113
sI16
g119
sI17
g125
sI18
g131
sI19
g137
sI20
g143
sI21
g149
sI22
g155
sI23
g161
sI24
g167
sI25
g173
sI26
g179
sI27
g185
sI28
g191
sI29
g197
sI30
g203
sI31
g209
sI32
g215
sI33
g221
sI34
g227
sI35
g233
sI36
g239
sI37
g245
sI38
g251
sI39
g257
sI40
g263
sI41
g269
sI42
g275
sI43
g281
sI44
g287
sI45
g293
sI46
g299
sI47
g305
sI48
g311
sI49
g317
sI50
g323
sI51
g329
sI52
g335
sI53
g341
sI54
g347
sI55
g353
sI56
g359
sI57
g365
sI58
g371
sI59
g377
sI60
g383
sI61
g389
sI62
g395
sI63
g401
sI64
g407
sI65
g413
sI66
g419
sI67
g425
sI68
g431
sI69
g437
sI70
g443
sI71
g449
sI72
g455
sI73
g461
sI74
g467
sI75
g473
sI76
g479
sI77
g485
sI78
g491
sI79
g497
sI80
g503
sI81
g509
sI82
g515
sI83
g521
sI84
g527
sI85
g533
sI86
g539
sI87
g545
sI88
g551
sI89
g557
sI90
g563
sI91
g569
sI92
g575
sI93
g581
sI94
g587
sI95
g593
sI96
g599
sI97
g605
sI98
g611
sI99
g617
sI100
g623
sI101
g629
ssbsbsS'cols_2_vars'
p721
(dp722
I2
g10
sI3
g21
sI4
g18
sI5
g25
ssS'label_column_name_label'
p723
S'study'
p724
sb.